; Function Attrs: mustprogress nounwind uwtable
define internal void @_ZN12_GLOBAL__N_115ScheduleDAGVLIWD2Ev(ptr noundef nonnull align 8 dereferenceable(680) %0) unnamed_addr #0 align 2 {
  store ptr getelementptr inbounds inrange(-16, 120) (i8, ptr @_ZTVN12_GLOBAL__N_115ScheduleDAGVLIWE, i64 16), ptr %0, align 8
  %2 = getelementptr inbounds nuw i8, ptr %0, i64 664
  %3 = load ptr, ptr %2, align 8
  %4 = icmp eq ptr %3, null
  br i1 %4, label %9, label %5

5:                                                ; preds = %1
  %6 = load ptr, ptr %3, align 8
  %7 = getelementptr inbounds i8, ptr %6, i64 8
  %8 = load ptr, ptr %7, align 8
  tail call void %8(ptr noundef nonnull align 8 dereferenceable(12) %3) #12
  br label %9

9:                                                ; preds = %5, %1
  %10 = getelementptr inbounds nuw i8, ptr %0, i64 632
  %11 = load ptr, ptr %10, align 8
  %12 = icmp eq ptr %11, null
  br i1 %12, label %17, label %13

13:                                               ; preds = %9
  %14 = load ptr, ptr %11, align 8
  %15 = getelementptr inbounds i8, ptr %14, i64 16
  %16 = load ptr, ptr %15, align 8
  tail call void %16(ptr noundef nonnull align 8 dereferenceable(13) %11) #12
  br label %17

17:                                               ; preds = %13, %9
  %18 = getelementptr inbounds nuw i8, ptr %0, i64 640
  %19 = load ptr, ptr %18, align 8
  %.not.i.i.i = icmp eq ptr %19, null
  br i1 %.not.i.i.i, label %_ZNSt6vectorIPN4llvm5SUnitESaIS2_EED2Ev.exit, label %20

20:                                               ; preds = %17
  %21 = getelementptr inbounds i8, ptr %0, i64 656
  %22 = load ptr, ptr %21, align 8
  %23 = ptrtoint ptr %22 to i64
  %24 = ptrtoint ptr %19 to i64
  %25 = sub i64 %23, %24
  tail call void @_ZdlPvm(ptr noundef nonnull %19, i64 noundef %25) #13
  br label %_ZNSt6vectorIPN4llvm5SUnitESaIS2_EED2Ev.exit

_ZNSt6vectorIPN4llvm5SUnitESaIS2_EED2Ev.exit:     ; preds = %17, %20
  store ptr getelementptr inbounds inrange(-16, 120) (i8, ptr @_ZTVN4llvm18ScheduleDAGSDNodesE, i64 16), ptr %0, align 8
  %26 = getelementptr inbounds nuw i8, ptr %0, i64 608
  %27 = load ptr, ptr %26, align 8
  %.not.i.i.i.i = icmp eq ptr %27, null
  br i1 %.not.i.i.i.i, label %_ZN4llvm18ScheduleDAGSDNodesD2Ev.exit, label %28

28:                                               ; preds = %_ZNSt6vectorIPN4llvm5SUnitESaIS2_EED2Ev.exit
  %29 = getelementptr inbounds i8, ptr %0, i64 624
  %30 = load ptr, ptr %29, align 8
  %31 = ptrtoint ptr %30 to i64
  %32 = ptrtoint ptr %27 to i64
  %33 = sub i64 %31, %32
  tail call void @_ZdlPvm(ptr noundef nonnull %27, i64 noundef %33) #13
  br label %_ZN4llvm18ScheduleDAGSDNodesD2Ev.exit

_ZN4llvm18ScheduleDAGSDNodesD2Ev.exit:            ; preds = %_ZNSt6vectorIPN4llvm5SUnitESaIS2_EED2Ev.exit, %28
  tail call void @_ZN4llvm11ScheduleDAGD2Ev(ptr noundef nonnull align 8 dereferenceable(584) %0) #12
  ret void
}